; Function Attrs: nounwind uwtable
define internal ptr @ecx_dupctx(ptr noundef readonly captures(none) %0) #0 {
  %2 = tail call i32 @ossl_prov_is_running() #4
  %.not = icmp eq i32 %2, 0
  br i1 %.not, label %19, label %3

3:                                                ; preds = %1
  %4 = tail call noalias ptr @CRYPTO_zalloc(i64 noundef 24, ptr noundef nonnull @.str, i32 noundef 159) #4
  %5 = icmp eq ptr %4, null
  br i1 %5, label %19, label %6

6:                                                ; preds = %3
  tail call void @llvm.memcpy.p0.p0.i64(ptr noundef nonnull align 8 dereferenceable(24) %4, ptr noundef nonnull align 8 dereferenceable(24) %0, i64 24, i1 false), !tbaa.struct !18
  %7 = getelementptr inbounds nuw i8, ptr %4, i64 8
  %8 = load ptr, ptr %7, align 8, !tbaa !11
  %.not16 = icmp eq ptr %8, null
  br i1 %.not16, label %12, label %9

9:                                                ; preds = %6
  %10 = tail call i32 @ossl_ecx_key_up_ref(ptr noundef nonnull %8) #4
  %.not17 = icmp eq i32 %10, 0
  br i1 %.not17, label %11, label %12

11:                                               ; preds = %9
  tail call void @ERR_new() #4
  tail call void @ERR_set_debug(ptr noundef nonnull @.str, i32 noundef 165, ptr noundef nonnull @__func__.ecx_dupctx) #4
  tail call void (i32, i32, ptr, ...) @ERR_set_error(i32 noundef 57, i32 noundef 786691, ptr noundef null) #4
  br label %.sink.split

12:                                               ; preds = %9, %6
  %13 = getelementptr inbounds nuw i8, ptr %4, i64 16
  %14 = load ptr, ptr %13, align 8, !tbaa !10
  %.not18 = icmp eq ptr %14, null
  br i1 %.not18, label %19, label %15

15:                                               ; preds = %12
  %16 = tail call i32 @ossl_ecx_key_up_ref(ptr noundef nonnull %14) #4
  %.not19 = icmp eq i32 %16, 0
  br i1 %.not19, label %17, label %19

17:                                               ; preds = %15
  tail call void @ERR_new() #4
  tail call void @ERR_set_debug(ptr noundef nonnull @.str, i32 noundef 171, ptr noundef nonnull @__func__.ecx_dupctx) #4
  tail call void (i32, i32, ptr, ...) @ERR_set_error(i32 noundef 57, i32 noundef 786691, ptr noundef null) #4
  %18 = load ptr, ptr %7, align 8, !tbaa !11
  tail call void @ossl_ecx_key_free(ptr noundef %18) #4
  br label %.sink.split

.sink.split:                                      ; preds = %11, %17
  %.sink = phi i32 [ 173, %17 ], [ 166, %11 ]
  tail call void @CRYPTO_free(ptr noundef nonnull %4, ptr noundef nonnull @.str, i32 noundef %.sink) #4
  br label %19

19:                                               ; preds = %.sink.split, %12, %15, %3, %1
  %.0 = phi ptr [ null, %1 ], [ null, %3 ], [ %4, %15 ], [ %4, %12 ], [ null, %.sink.split ]
  ret ptr %.0
}